(lp1
(F0
I1
I100
tp2
a(F0.57886684563344659
I2
I100
tp3
a(F0.94410938993287907
I3
I100
tp4
a(F0.91626643445889799
I4
I100
tp5
a(F0.93165340404827979
I5
I100
tp6
a(F0.95487168739847172
I6
I100
tp7
a(F0.95237988216020708
I7
I100
tp8
a(F0.95466421273260826
I8
I100
tp9
a(F0.95386036967404442
I9
I100
tp10
a(F0.95370869318038731
I10
I100
tp11
a(F0.95033382350632045
I11
I100
tp12
a(F0.95030386526342858
I12
I100
tp13
a(F0.95129756133652987
I13
I100
tp14
a(F0.9512515795388089
I14
I100
tp15
a(F0.9521226595523945
I15
I100
tp16
a(F0.9508222608138156
I16
I100
tp17
a(F0.94934729336305679
I17
I100
tp18
a(F0.95133646634745939
I18
I100
tp19
a(F0.94836777928725924
I19
I100
tp20
a(F0.95204345987338557
I20
I100
tp21
a(F0.95327512410168236
I21
I100
tp22
a(F0.9530091322667319
I22
I100
tp23
a(F0.94958437744727209
I23
I100
tp24
a(F0.95007311232904912
I24
I100
tp25
a(F0.95051171378463528
I25
I100
tp26
a(F0.95100439720205332
I26
I100
tp27
a(F0.9508495709537651
I27
I100
tp28
a(F0.95218379187260949
I28
I100
tp29
a(F0.95205319352910767
I29
I100
tp30
a(F0.95132765330376456
I30
I100
tp31
a(F0.95067412126931961
I31
I100
tp32
a(F0.95109010915973535
I32
I100
tp33
a(F0.95073181341563784
I33
I100
tp34
a(F0.95075271654271321
I34
I100
tp35
a(F0.95074095032167216
I35
I100
tp36
a(F0.95071002661284776
I36
I100
tp37
a(F0.95137123953832015
I37
I100
tp38
a(F0.9505006922900795
I38
I100
tp39
a(F0.95053790066753352
I39
I100
tp40
a(F0.95083189524160139
I40
I100
tp41
a(F0.95182848796597153
I41
I100
tp42
a(F0.9524227517478594
I42
I100
tp43
a(F0.95098977325287437
I43
I100
tp44
a(F0.95015419785837019
I44
I100
tp45
a(F0.95286689851338657
I45
I100
tp46
a(F0.95167095277989866
I46
I100
tp47
a(F0.9498390725620286
I47
I100
tp48
a(F0.95264417468093998
I48
I100
tp49
a(F0.95028446043756898
I49
I100
tp50
a.